Certificate:
    Data:
        Version: 3 (0x2)
        Serial Number: 5 (0x5)
        Signature Algorithm: sha256WithRSAEncryption
        Issuer: C=DE, ST=NRW, L=Aachen, O=Test CA, Limited, OU=Server Research Department, CN=Test CA/emailAddress=test@example.com
        Validity
            Not Before: Jun  4 10:53:47 2021 GMT
            Not After : Feb 29 10:53:47 2024 GMT
        Subject: C=DE, ST=NRW, L=Aachen, O=Test Server, Limited, CN=Test Server
        Subject Public Key Info:
            Public Key Algorithm: rsaEncryption
                RSA Public-Key: (2048 bit)
                Modulus:
                    00:ed:0c:64:ac:b3:6a:51:48:89:7f:72:bd:b7:12:
                    8c:90:59:49:00:24:b3:0a:cc:65:63:df:f9:e4:9f:
                    f7:83:5a:ef:3a:a2:77:2d:47:6c:20:02:ee:20:49:
                    31:16:be:22:96:5b:ac:c6:c8:c6:e3:e7:ed:79:0a:
                    17:bc:07:dc:37:77:ff:3c:c8:95:65:3d:94:c2:37:
                    49:db:6d:29:aa:79:77:12:f2:8f:70:c4:1e:30:a0:
                    78:4e:a9:c9:0a:b9:3f:b1:e9:36:b5:82:89:4e:94:
                    68:99:63:ed:f1:96:88:db:c1:79:b5:c9:8b:00:fc:
                    33:a6:6a:f1:02:b9:16:ca:fe:1a:4c:92:fc:e6:6b:
                    5f:c5:47:b5:91:dc:56:9e:72:11:91:76:a3:09:29:
                    42:dd:a6:5f:05:7c:02:4d:41:dd:b9:81:6d:e0:b1:
                    2c:7a:6a:c0:dd:63:b8:95:d6:6c:71:12:57:06:1c:
                    c3:0a:e0:ca:9b:0b:84:78:39:91:80:d0:17:da:e7:
                    58:71:91:0f:f1:ab:9e:1e:bd:fc:43:c9:bb:4a:ab:
                    5e:f0:69:8d:3b:5e:ba:f4:03:70:03:93:1b:17:7a:
                    f7:25:4a:f3:b7:0e:03:fb:a3:a1:4c:05:2b:82:99:
                    e7:b3:68:ef:ee:3a:4b:d0:1d:7a:ae:f8:78:28:4e:
                    b2:e5
                Exponent: 65537 (0x10001)
        X509v3 extensions:
            X509v3 Subject Key Identifier: 
                23:14:91:B2:6A:C3:73:84:06:9C:D6:2E:8C:5D:FC:A1:F5:29:56:F5
            X509v3 Authority Key Identifier: 
                keyid:6D:FD:69:01:9F:B6:C2:FF:38:BB:3A:94:3D:CA:CD:54:C3:03:39:DB

            X509v3 Basic Constraints: 
                CA:FALSE
            X509v3 Key Usage: 
                Digital Signature, Key Encipherment
            X509v3 Subject Alternative Name: 
                DNS:example.com, DNS:www.example.com, DNS:mail.example.com, DNS:ftp.example.com
            Netscape Comment: 
                OpenSSL Generated Certificate
            X509v3 Extended Key Usage: 
                TLS Web Server Authentication, TLS Web Client Authentication, 1.2.840.10004.10700.1.2, 1.2.840.10004.10700.1.1
    Signature Algorithm: sha256WithRSAEncryption
         42:4a:ee:a0:5f:da:a9:f8:76:63:6e:6f:f6:d1:20:9e:0d:de:
         56:72:1c:f8:41:ff:a6:d4:0c:a1:fd:c3:67:7f:0e:8c:70:e1:
         d7:04:bc:be:4f:f7:1b:1c:d7:d5:e3:3b:d6:92:1a:32:c8:35:
         31:5d:c3:d8:e2:97:5d:01:b9:04:5a:16:fb:bc:d7:44:b4:8d:
         08:d7:7d:c0:d3:1b:c2:87:11:b2:4d:66:d3:15:22:16:ea:97:
         0d:92:96:b6:78:c7:c7:eb:5e:5f:91:14:40:28:6e:8b:6d:40:
         f0:70:ae:84:79:5c:ba:dc:09:e8:60:37:f8:2e:f9:55:72:2e:
         7a:4c:7d:07:84:ad:62:35:94:e6:95:c4:5a:b8:a5:ca:9c:14:
         c1:2c:cb:d8:ec:aa:9b:08:94:8e:ea:ab:79:43:8d:dd:ca:8a:
         1b:e8:66:3a:05:c8:a1:c1:1f:b7:7e:ec:75:7b:f6:63:69:cb:
         fe:82:9f:63:b0:fa:16:48:56:2f:4b:f8:8d:d3:70:f9:de:7c:
         d3:81:a1:af:3d:b2:ab:67:f0:f0:7e:b6:74:27:04:4a:85:61:
         1e:ef:7d:85:22:18:17:25:b5:3a:62:86:5f:d7:e3:fc:3f:e9:
         91:29:2c:79:42:39:6c:33:74:e4:ef:a5:21:c8:bd:32:19:13:
         5e:c8:cf:b8:1f:23:21:da:15:c8:9f:d6:09:c7:e5:10:8e:b7:
         d4:4d:16:ef:9c:94:d1:aa:c1:69:bc:b5:8a:ef:b9:47:15:6c:
         1d:1b:94:7e:e6:36:52:74:e3:c8:aa:b9:12:8b:44:93:ff:ea:
         0b:9a:0c:c5:50:78:9c:8a:29:19:01:1d:c6:a5:b3:09:95:03:
         e8:aa:ab:41:fe:06:ba:ff:70:01:5f:86:76:31:28:9a:44:5d:
         cb:c4:15:06:a7:67:09:6e:d4:5a:09:92:cc:70:77:08:b5:32:
         9a:5b:e0:25:05:cd:17:35:9b:e9:62:ec:d3:18:e3:1c:da:d7:
         1d:d8:e7:57:24:50:83:db:a9:da:fe:ee:1f:4e:d9:7b:95:05:
         39:32:35:30:21:f8:aa:d4:db:79:51:c9:a9:1c:a1:b6:58:9c:
         29:00:db:50:de:dd:e7:f2:89:46:c6:c5:94:22:a1:42:8f:3a:
         c0:95:f4:4d:42:1a:26:a6:07:c1:18:70:a0:04:f6:8c:ac:3d:
         32:60:b3:34:2b:71:11:98:4e:ca:5d:b6:0a:fd:e9:50:02:09:
         80:26:4f:0b:8c:a4:a7:e7:5f:3f:d7:3d:e6:a6:5a:0a:88:23:
         ea:20:f4:d5:7c:c9:e5:6f:11:66:64:3c:44:b4:4f:09:c2:ad:
         a2:fb:2b:01:0b:bf:2d:41
-----BEGIN CERTIFICATE-----
MIIFiTCCA3GgAwIBAgIBBTANBgkqhkiG9w0BAQsFADCBnzELMAkGA1UEBhMCREUx
DDAKBgNVBAgMA05SVzEPMA0GA1UEBwwGQWFjaGVuMRkwFwYDVQQKDBBUZXN0IENB
LCBMaW1pdGVkMSMwIQYDVQQLDBpTZXJ2ZXIgUmVzZWFyY2ggRGVwYXJ0bWVudDEQ
MA4GA1UEAwwHVGVzdCBDQTEfMB0GCSqGSIb3DQEJARYQdGVzdEBleGFtcGxlLmNv
bTAeFw0yMTA2MDQxMDUzNDdaFw0yNDAyMjkxMDUzNDdaMGExCzAJBgNVBAYTAkRF
MQwwCgYDVQQIDANOUlcxDzANBgNVBAcMBkFhY2hlbjEdMBsGA1UECgwUVGVzdCBT
ZXJ2ZXIsIExpbWl0ZWQxFDASBgNVBAMMC1Rlc3QgU2VydmVyMIIBIjANBgkqhkiG
9w0BAQEFAAOCAQ8AMIIBCgKCAQEA7QxkrLNqUUiJf3K9txKMkFlJACSzCsxlY9/5
5J/3g1rvOqJ3LUdsIALuIEkxFr4illusxsjG4+fteQoXvAfcN3f/PMiVZT2UwjdJ
220pqnl3EvKPcMQeMKB4TqnJCrk/sek2tYKJTpRomWPt8ZaI28F5tcmLAPwzpmrx
ArkWyv4aTJL85mtfxUe1kdxWnnIRkXajCSlC3aZfBXwCTUHduYFt4LEsemrA3WO4
ldZscRJXBhzDCuDKmwuEeDmRgNAX2udYcZEP8aueHr38Q8m7Sqte8GmNO1669ANw
A5MbF3r3JUrztw4D+6OhTAUrgpnns2jv7jpL0B16rvh4KE6y5QIDAQABo4IBCzCC
AQcwHQYDVR0OBBYEFCMUkbJqw3OEBpzWLoxd/KH1KVb1MB8GA1UdIwQYMBaAFG39
aQGftsL/OLs6lD3KzVTDAznbMAkGA1UdEwQCMAAwCwYDVR0PBAQDAgWgMEoGA1Ud
EQRDMEGCC2V4YW1wbGUuY29tgg93d3cuZXhhbXBsZS5jb22CEG1haWwuZXhhbXBs
ZS5jb22CD2Z0cC5leGFtcGxlLmNvbTAsBglghkgBhvhCAQ0EHxYdT3BlblNTTCBH
ZW5lcmF0ZWQgQ2VydGlmaWNhdGUwMwYDVR0lBCwwKgYIKwYBBQUHAwEGCCsGAQUF
BwMCBgkqhkjOFNNMAQIGCSqGSM4U00wBATANBgkqhkiG9w0BAQsFAAOCAgEAQkru
oF/aqfh2Y25v9tEgng3eVnIc+EH/ptQMof3DZ38OjHDh1wS8vk/3GxzX1eM71pIa
Msg1MV3D2OKXXQG5BFoW+7zXRLSNCNd9wNMbwocRsk1m0xUiFuqXDZKWtnjHx+te
X5EUQChui21A8HCuhHlcutwJ6GA3+C75VXIuekx9B4StYjWU5pXEWrilypwUwSzL
2OyqmwiUjuqreUON3cqKG+hmOgXIocEft37sdXv2Y2nL/oKfY7D6FkhWL0v4jdNw
+d5804Ghrz2yq2fw8H62dCcESoVhHu99hSIYFyW1OmKGX9fj/D/pkSkseUI5bDN0
5O+lIci9MhkTXsjPuB8jIdoVyJ/WCcflEI631E0W75yU0arBaby1iu+5RxVsHRuU
fuY2UnTjyKq5EotEk//qC5oMxVB4nIopGQEdxqWzCZUD6KqrQf4Guv9wAV+GdjEo
mkRdy8QVBqdnCW7UWgmSzHB3CLUymlvgJQXNFzWb6WLs0xjjHNrXHdjnVyRQg9up
2v7uH07Ze5UFOTI1MCH4qtTbeVHJqRyhtlicKQDbUN7d5/KJRsbFlCKhQo86wJX0
TUIaJqYHwRhwoAT2jKw9MmCzNCtxEZhOyl22Cv3pUAIJgCZPC4ykp+dfP9c95qZa
Cogj6iD01XzJ5W8RZmQ8RLRPCcKtovsrAQu/LUE=
-----END CERTIFICATE-----
